target datalayout = "e-m:e-p270:32:32-p271:32:32-p272:64:64-i64:64-i128:128-f80:128-n8:16:32:64-S128"
target triple = "x86_64-pc-linux-gnu"

%struct.pm_string_t = type { ptr, i64, i32 }
%struct.pm_options = type { ptr, ptr, %struct.pm_string_t, i32, %struct.pm_string_t, i64, ptr, i32, i8, i8, i8, i8, i8, i8 }
%struct.pm_parser = type { i32, i32, i32, i32, i32, i32, i32, %struct.anon.5, ptr, ptr, %struct.pm_token_t, %struct.pm_token_t, ptr, ptr, %struct.pm_list_t, %struct.pm_list_t, %struct.pm_location_t, %struct.pm_list_t, %struct.pm_list_t, ptr, ptr, ptr, ptr, ptr, ptr, ptr, %struct.pm_string_t, %struct.pm_constant_pool_t, %struct.pm_newline_list_t, i16, %struct.pm_string_t, i32, ptr, ptr, i32, i8, i8, i8, i8, i8, i8, i8, i8, i8, i8, i8, i8, i8 }
%struct.anon.5 = type { ptr, [4 x %struct.pm_lex_mode], i64 }
%struct.pm_lex_mode = type { i32, %union.anon.6, ptr }
%union.anon.6 = type { %struct.anon.10 }
%struct.anon.10 = type { %struct.pm_heredoc_lex_mode_t, ptr, ptr, i8 }
%struct.pm_heredoc_lex_mode_t = type { ptr, i64, i32, i32 }
%struct.pm_token_t = type { i32, ptr, ptr }
%struct.pm_location_t = type { ptr, ptr }
%struct.pm_list_t = type { i64, ptr, ptr }
%struct.pm_constant_pool_t = type { ptr, ptr, i32, i32 }
%struct.pm_newline_list_t = type { ptr, i64, i64, ptr }
%struct.pm_encoding_t = type { ptr, ptr, ptr, ptr, ptr, i8 }
%struct.parse_lex_data_t = type { i64, i64, ptr, i8 }
%struct.pm_lex_callback_t = type { ptr, ptr }

@rb_cPrismSource = hidden global i64 0, align 8
@rb_cPrismLexResult = hidden global i64 0, align 8
@rb_cPrismParseLexResult = hidden global i64 0, align 8
@rb_id_source_for = hidden global i64 0, align 8

; Function Attrs: inlinehint nounwind sspstrong willreturn memory(none) uwtable
define internal i64 @RB_INT2FIX(i64 noundef %0) #11 {
  %2 = alloca i64, align 8
  %3 = alloca i64, align 8
  %4 = alloca i64, align 8
  %5 = alloca i64, align 8
  %6 = alloca i64, align 8
  %7 = alloca i64, align 8
  store i64 %0, ptr %2, align 8, !tbaa !7
  call void @llvm.lifetime.start.p0(i64 8, ptr %3) #24
  %8 = load i64, ptr %2, align 8, !tbaa !7
  store i64 %8, ptr %3, align 8, !tbaa !7
  call void @llvm.lifetime.start.p0(i64 8, ptr %4) #24
  %9 = load i64, ptr %3, align 8, !tbaa !7
  %10 = shl i64 %9, 1
  %11 = add i64 %10, 1
  store i64 %11, ptr %4, align 8, !tbaa !7
  call void @llvm.lifetime.start.p0(i64 8, ptr %5) #24
  %12 = load i64, ptr %4, align 8, !tbaa !7
  store i64 %12, ptr %5, align 8, !tbaa !7
  call void @llvm.lifetime.start.p0(i64 8, ptr %6) #24
  %13 = load i64, ptr %5, align 8, !tbaa !7
  store i64 %13, ptr %6, align 8, !tbaa !7
  call void @llvm.lifetime.start.p0(i64 8, ptr %7) #24
  %14 = load i64, ptr %6, align 8, !tbaa !7
  store i64 %14, ptr %7, align 8, !tbaa !7
  %15 = load i64, ptr %7, align 8, !tbaa !7
  call void @llvm.lifetime.end.p0(i64 8, ptr %7) #24
  call void @llvm.lifetime.end.p0(i64 8, ptr %6) #24
  call void @llvm.lifetime.end.p0(i64 8, ptr %5) #24
  call void @llvm.lifetime.end.p0(i64 8, ptr %4) #24
  call void @llvm.lifetime.end.p0(i64 8, ptr %3) #24
  ret i64 %15
}

; Function Attrs: inlinehint nounwind sspstrong uwtable
define internal i64 @rb_ulong2num_inline(i64 noundef %0) #6 {
  %2 = alloca i64, align 8
  %3 = alloca i64, align 8
  store i64 %0, ptr %3, align 8, !tbaa !7
  %4 = load i64, ptr %3, align 8, !tbaa !7
  %5 = icmp ult i64 %4, 4611686018427387904
  br i1 %5, label %6, label %9

6:                                                ; preds = %1
  %7 = load i64, ptr %3, align 8, !tbaa !7
  %8 = call i64 @RB_INT2FIX(i64 noundef %7) #25
  store i64 %8, ptr %2, align 8
  br label %12

9:                                                ; preds = %1
  %10 = load i64, ptr %3, align 8, !tbaa !7
  %11 = call i64 @rb_uint2big(i64 noundef %10)
  store i64 %11, ptr %2, align 8
  br label %12

12:                                               ; preds = %9, %6
  %13 = load i64, ptr %2, align 8
  ret i64 %13
}

; Function Attrs: inlinehint nounwind sspstrong uwtable
define internal i64 @rb_long2num_inline(i64 noundef %0) #6 {
  %2 = alloca i64, align 8
  %3 = alloca i64, align 8
  store i64 %0, ptr %3, align 8, !tbaa !7
  %4 = load i64, ptr %3, align 8, !tbaa !7
  %5 = icmp slt i64 %4, 4611686018427387904
  br i1 %5, label %6, label %12

6:                                                ; preds = %1
  %7 = load i64, ptr %3, align 8, !tbaa !7
  %8 = icmp sge i64 %7, -4611686018427387904
  br i1 %8, label %9, label %12

9:                                                ; preds = %6
  %10 = load i64, ptr %3, align 8, !tbaa !7
  %11 = call i64 @RB_INT2FIX(i64 noundef %10) #25
  store i64 %11, ptr %2, align 8
  br label %15

12:                                               ; preds = %6, %1
  %13 = load i64, ptr %3, align 8, !tbaa !7
  %14 = call i64 @rb_int2big(i64 noundef %13)
  store i64 %14, ptr %2, align 8
  br label %15

15:                                               ; preds = %12, %9
  %16 = load i64, ptr %2, align 8
  ret i64 %16
}

; Function Attrs: nounwind sspstrong uwtable
define internal i64 @parse_lex_input(ptr noundef %0, ptr noundef %1, i1 noundef zeroext %2) #0 {
  %4 = alloca ptr, align 8
  %5 = alloca ptr, align 8
  %6 = alloca i8, align 1
  %7 = alloca %struct.pm_parser, align 8
  %8 = alloca i64, align 8
  %9 = alloca i64, align 8
  %10 = alloca i64, align 8
  %11 = alloca %struct.parse_lex_data_t, align 8
  %12 = alloca ptr, align 8
  %13 = alloca %struct.pm_lex_callback_t, align 8
  %14 = alloca ptr, align 8
  %15 = alloca ptr, align 8
  %16 = alloca i64, align 8
  %17 = alloca i64, align 8
  %18 = alloca i64, align 8
  store ptr %0, ptr %4, align 8, !tbaa !49
  store ptr %1, ptr %5, align 8, !tbaa !50
  %19 = zext i1 %2 to i8
  store i8 %19, ptr %6, align 1, !tbaa !52
  call void @llvm.lifetime.start.p0(i64 712, ptr %7) #24
  %20 = load ptr, ptr %4, align 8, !tbaa !49
  %21 = call ptr @pm_string_source(ptr noundef %20)
  %22 = load ptr, ptr %4, align 8, !tbaa !49
  %23 = call i64 @pm_string_length(ptr noundef %22)
  %24 = load ptr, ptr %5, align 8, !tbaa !50
  call void @pm_parser_init(ptr noundef %7, ptr noundef %21, i64 noundef %23, ptr noundef %24)
  call void @pm_parser_register_encoding_changed_callback(ptr noundef %7, ptr noundef @parse_lex_encoding_changed_callback)
  call void @llvm.lifetime.start.p0(i64 8, ptr %8) #24
  %25 = load ptr, ptr %4, align 8, !tbaa !49
  %26 = call ptr @pm_string_source(ptr noundef %25)
  %27 = load ptr, ptr %4, align 8, !tbaa !49
  %28 = call i64 @pm_string_length(ptr noundef %27)
  %29 = call i64 @rb_str_new(ptr noundef %26, i64 noundef %28)
  store i64 %29, ptr %8, align 8, !tbaa !7
  call void @llvm.lifetime.start.p0(i64 8, ptr %9) #24
  %30 = getelementptr inbounds nuw %struct.pm_parser, ptr %7, i32 0, i32 28
  %31 = getelementptr inbounds nuw %struct.pm_newline_list_t, ptr %30, i32 0, i32 1
  %32 = load i64, ptr %31, align 8, !tbaa !53
  %33 = call i64 @rb_ary_new_capa(i64 noundef %32)
  store i64 %33, ptr %9, align 8, !tbaa !7
  call void @llvm.lifetime.start.p0(i64 8, ptr %10) #24
  %34 = load i64, ptr @rb_cPrismSource, align 8, !tbaa !7
  %35 = load i64, ptr @rb_id_source_for, align 8, !tbaa !7
  %36 = load i64, ptr %8, align 8, !tbaa !7
  %37 = getelementptr inbounds nuw %struct.pm_parser, ptr %7, i32 0, i32 31
  %38 = load i32, ptr %37, align 8, !tbaa !54
  %39 = sext i32 %38 to i64
  %40 = call i64 @rb_long2num_inline(i64 noundef %39)
  %41 = load i64, ptr %9, align 8, !tbaa !7
  %42 = call i64 (i64, i64, i32, ...) @rb_funcall(i64 noundef %34, i64 noundef %35, i32 noundef 3, i64 noundef %36, i64 noundef %40, i64 noundef %41)
  store i64 %42, ptr %10, align 8, !tbaa !7
  call void @llvm.lifetime.start.p0(i64 32, ptr %11) #24
  %43 = getelementptr inbounds nuw %struct.parse_lex_data_t, ptr %11, i32 0, i32 0
  %44 = load i64, ptr %10, align 8, !tbaa !7
  store i64 %44, ptr %43, align 8, !tbaa !55
  %45 = getelementptr inbounds nuw %struct.parse_lex_data_t, ptr %11, i32 0, i32 1
  %46 = call i64 @rb_ary_new()
  store i64 %46, ptr %45, align 8, !tbaa !57
  %47 = getelementptr inbounds nuw %struct.parse_lex_data_t, ptr %11, i32 0, i32 2
  %48 = call nonnull ptr @rb_utf8_encoding()
  store ptr %48, ptr %47, align 8, !tbaa !58
  %49 = getelementptr inbounds nuw %struct.parse_lex_data_t, ptr %11, i32 0, i32 3
  %50 = load ptr, ptr %5, align 8, !tbaa !50
  %51 = getelementptr inbounds nuw %struct.pm_options, ptr %50, i32 0, i32 13
  %52 = load i8, ptr %51, align 1, !tbaa !42, !range !45, !noundef !46
  %53 = trunc i8 %52 to i1
  %54 = zext i1 %53 to i8
  store i8 %54, ptr %49, align 8, !tbaa !59
  %55 = getelementptr i8, ptr %11, i64 25
  call void @llvm.memset.p0.i64(ptr align 1 %55, i8 0, i64 7, i1 false)
  call void @llvm.lifetime.start.p0(i64 8, ptr %12) #24
  store ptr %11, ptr %12, align 8, !tbaa !49
  call void @llvm.lifetime.start.p0(i64 16, ptr %13) #24
  %56 = getelementptr inbounds nuw %struct.pm_lex_callback_t, ptr %13, i32 0, i32 0
  %57 = load ptr, ptr %12, align 8, !tbaa !49
  store ptr %57, ptr %56, align 8, !tbaa !60
  %58 = getelementptr inbounds nuw %struct.pm_lex_callback_t, ptr %13, i32 0, i32 1
  store ptr @parse_lex_token, ptr %58, align 8, !tbaa !62
  %59 = getelementptr inbounds nuw %struct.pm_parser, ptr %7, i32 0, i32 25
  store ptr %13, ptr %59, align 8, !tbaa !63
  call void @llvm.lifetime.start.p0(i64 8, ptr %14) #24
  %60 = call ptr @pm_parse(ptr noundef %7)
  store ptr %60, ptr %14, align 8, !tbaa !20
  call void @llvm.lifetime.start.p0(i64 8, ptr %15) #24
  %61 = getelementptr inbounds nuw %struct.pm_parser, ptr %7, i32 0, i32 22
  %62 = load ptr, ptr %61, align 8, !tbaa !22
  %63 = getelementptr inbounds nuw %struct.pm_encoding_t, ptr %62, i32 0, i32 4
  %64 = load ptr, ptr %63, align 8, !tbaa !38
  %65 = call ptr @rb_enc_find(ptr noundef %64)
  store ptr %65, ptr %15, align 8, !tbaa !40
  %66 = load i64, ptr %8, align 8, !tbaa !7
  %67 = load ptr, ptr %15, align 8, !tbaa !40
  %68 = call i64 @rb_enc_associate(i64 noundef %66, ptr noundef %67)
  call void @llvm.lifetime.start.p0(i64 8, ptr %16) #24
  store i64 0, ptr %16, align 8, !tbaa !7
  br label %69

69:                                               ; preds = %86, %3
  %70 = load i64, ptr %16, align 8, !tbaa !7
  %71 = getelementptr inbounds nuw %struct.pm_parser, ptr %7, i32 0, i32 28
  %72 = getelementptr inbounds nuw %struct.pm_newline_list_t, ptr %71, i32 0, i32 1
  %73 = load i64, ptr %72, align 8, !tbaa !53
  %74 = icmp ult i64 %70, %73
  br i1 %74, label %76, label %75

75:                                               ; preds = %69
  call void @llvm.lifetime.end.p0(i64 8, ptr %16) #24
  br label %89

76:                                               ; preds = %69
  %77 = load i64, ptr %9, align 8, !tbaa !7
  %78 = getelementptr inbounds nuw %struct.pm_parser, ptr %7, i32 0, i32 28
  %79 = getelementptr inbounds nuw %struct.pm_newline_list_t, ptr %78, i32 0, i32 3
  %80 = load ptr, ptr %79, align 8, !tbaa !64
  %81 = load i64, ptr %16, align 8, !tbaa !7
  %82 = getelementptr i64, ptr %80, i64 %81
  %83 = load i64, ptr %82, align 8, !tbaa !7
  %84 = call i64 @rb_ulong2num_inline(i64 noundef %83)
  %85 = call i64 @rb_ary_push(i64 noundef %77, i64 noundef %84)
  br label %86

86:                                               ; preds = %76
  %87 = load i64, ptr %16, align 8, !tbaa !7
  %88 = add i64 %87, 1
  store i64 %88, ptr %16, align 8, !tbaa !7
  br label %69, !llvm.loop !65

89:                                               ; preds = %75
  %90 = load ptr, ptr %5, align 8, !tbaa !50
  %91 = getelementptr inbounds nuw %struct.pm_options, ptr %90, i32 0, i32 13
  %92 = load i8, ptr %91, align 1, !tbaa !42, !range !45, !noundef !46
  %93 = trunc i8 %92 to i1
  br i1 %93, label %94, label %104

94:                                               ; preds = %89
  %95 = load i64, ptr %8, align 8, !tbaa !7
  %96 = call i64 @rb_obj_freeze(i64 noundef %95)
  %97 = load i64, ptr %9, align 8, !tbaa !7
  %98 = call i64 @rb_obj_freeze(i64 noundef %97)
  %99 = load i64, ptr %10, align 8, !tbaa !7
  %100 = call i64 @rb_obj_freeze(i64 noundef %99)
  %101 = getelementptr inbounds nuw %struct.parse_lex_data_t, ptr %11, i32 0, i32 1
  %102 = load i64, ptr %101, align 8, !tbaa !57
  %103 = call i64 @rb_obj_freeze(i64 noundef %102)
  br label %104

104:                                              ; preds = %94, %89
  call void @llvm.lifetime.start.p0(i64 8, ptr %17) #24
  %105 = load i8, ptr %6, align 1, !tbaa !52, !range !45, !noundef !46
  %106 = trunc i8 %105 to i1
  br i1 %106, label %107, label %142

107:                                              ; preds = %104
  call void @llvm.lifetime.start.p0(i64 8, ptr %18) #24
  %108 = call i64 @rb_ary_new_capa(i64 noundef 2)
  store i64 %108, ptr %18, align 8, !tbaa !7
  %109 = load i64, ptr %18, align 8, !tbaa !7
  %110 = load ptr, ptr %14, align 8, !tbaa !20
  %111 = getelementptr inbounds nuw %struct.parse_lex_data_t, ptr %11, i32 0, i32 2
  %112 = load ptr, ptr %111, align 8, !tbaa !58
  %113 = load i64, ptr %10, align 8, !tbaa !7
  %114 = load ptr, ptr %5, align 8, !tbaa !50
  %115 = getelementptr inbounds nuw %struct.pm_options, ptr %114, i32 0, i32 13
  %116 = load i8, ptr %115, align 1, !tbaa !42, !range !45, !noundef !46
  %117 = trunc i8 %116 to i1
  %118 = call i64 @pm_ast_new(ptr noundef %7, ptr noundef %110, ptr noundef %112, i64 noundef %113, i1 noundef zeroext %117)
  %119 = call i64 @rb_ary_push(i64 noundef %109, i64 noundef %118)
  %120 = load i64, ptr %18, align 8, !tbaa !7
  %121 = getelementptr inbounds nuw %struct.parse_lex_data_t, ptr %11, i32 0, i32 1
  %122 = load i64, ptr %121, align 8, !tbaa !57
  %123 = call i64 @rb_ary_push(i64 noundef %120, i64 noundef %122)
  %124 = load ptr, ptr %5, align 8, !tbaa !50
  %125 = getelementptr inbounds nuw %struct.pm_options, ptr %124, i32 0, i32 13
  %126 = load i8, ptr %125, align 1, !tbaa !42, !range !45, !noundef !46
  %127 = trunc i8 %126 to i1
  br i1 %127, label %128, label %131

128:                                              ; preds = %107
  %129 = load i64, ptr %18, align 8, !tbaa !7
  %130 = call i64 @rb_obj_freeze(i64 noundef %129)
  br label %131

131:                                              ; preds = %128, %107
  %132 = load i64, ptr @rb_cPrismParseLexResult, align 8, !tbaa !7
  %133 = load i64, ptr %18, align 8, !tbaa !7
  %134 = getelementptr inbounds nuw %struct.parse_lex_data_t, ptr %11, i32 0, i32 2
  %135 = load ptr, ptr %134, align 8, !tbaa !58
  %136 = load i64, ptr %10, align 8, !tbaa !7
  %137 = load ptr, ptr %5, align 8, !tbaa !50
  %138 = getelementptr inbounds nuw %struct.pm_options, ptr %137, i32 0, i32 13
  %139 = load i8, ptr %138, align 1, !tbaa !42, !range !45, !noundef !46
  %140 = trunc i8 %139 to i1
  %141 = call i64 @parse_result_create(i64 noundef %132, ptr noundef %7, i64 noundef %133, ptr noundef %135, i64 noundef %136, i1 noundef zeroext %140)
  store i64 %141, ptr %17, align 8, !tbaa !7
  call void @llvm.lifetime.end.p0(i64 8, ptr %18) #24
  br label %154

142:                                              ; preds = %104
  %143 = load i64, ptr @rb_cPrismLexResult, align 8, !tbaa !7
  %144 = getelementptr inbounds nuw %struct.parse_lex_data_t, ptr %11, i32 0, i32 1
  %145 = load i64, ptr %144, align 8, !tbaa !57
  %146 = getelementptr inbounds nuw %struct.parse_lex_data_t, ptr %11, i32 0, i32 2
  %147 = load ptr, ptr %146, align 8, !tbaa !58
  %148 = load i64, ptr %10, align 8, !tbaa !7
  %149 = load ptr, ptr %5, align 8, !tbaa !50
  %150 = getelementptr inbounds nuw %struct.pm_options, ptr %149, i32 0, i32 13
  %151 = load i8, ptr %150, align 1, !tbaa !42, !range !45, !noundef !46
  %152 = trunc i8 %151 to i1
  %153 = call i64 @parse_result_create(i64 noundef %143, ptr noundef %7, i64 noundef %145, ptr noundef %147, i64 noundef %148, i1 noundef zeroext %152)
  store i64 %153, ptr %17, align 8, !tbaa !7
  br label %154

154:                                              ; preds = %142, %131
  %155 = load ptr, ptr %14, align 8, !tbaa !20
  call void @pm_node_destroy(ptr noundef %7, ptr noundef %155)
  call void @pm_parser_free(ptr noundef %7)
  %156 = load i64, ptr %17, align 8, !tbaa !7
  call void @llvm.lifetime.end.p0(i64 8, ptr %17) #24
  call void @llvm.lifetime.end.p0(i64 8, ptr %15) #24
  call void @llvm.lifetime.end.p0(i64 8, ptr %14) #24
  call void @llvm.lifetime.end.p0(i64 16, ptr %13) #24
  call void @llvm.lifetime.end.p0(i64 8, ptr %12) #24
  call void @llvm.lifetime.end.p0(i64 32, ptr %11) #24
  call void @llvm.lifetime.end.p0(i64 8, ptr %10) #24
  call void @llvm.lifetime.end.p0(i64 8, ptr %9) #24
  call void @llvm.lifetime.end.p0(i64 8, ptr %8) #24
  call void @llvm.lifetime.end.p0(i64 712, ptr %7) #24
  ret i64 %156
}