; Function Attrs: nounwind sspstrong uwtable
define internal fastcc i64 @parse_lex_input(ptr noundef nonnull %0, ptr noundef nonnull %1, i1 noundef zeroext %2) unnamed_addr #0 {
  %4 = alloca %struct.pm_parser, align 8
  %5 = alloca %struct.parse_lex_data_t, align 8
  %6 = alloca %struct.pm_lex_callback_t, align 8
  call void @llvm.lifetime.start.p0(i64 712, ptr nonnull %4) #9
  %7 = tail call ptr @pm_string_source(ptr noundef nonnull %0) #9
  %8 = tail call i64 @pm_string_length(ptr noundef nonnull %0) #9
  call void @pm_parser_init(ptr noundef nonnull %4, ptr noundef %7, i64 noundef %8, ptr noundef nonnull %1) #9
  call void @pm_parser_register_encoding_changed_callback(ptr noundef nonnull %4, ptr noundef nonnull @parse_lex_encoding_changed_callback) #9
  %9 = call ptr @pm_string_source(ptr noundef nonnull %0) #9
  %10 = call i64 @pm_string_length(ptr noundef nonnull %0) #9
  %11 = call i64 @rb_str_new(ptr noundef %9, i64 noundef %10) #9
  %12 = getelementptr inbounds nuw i8, ptr %4, i64 608
  %13 = load i64, ptr %12, align 8, !tbaa !53
  %14 = call i64 @rb_ary_new_capa(i64 noundef %13) #9
  %15 = load i64, ptr @rb_cPrismSource, align 8, !tbaa !7
  %16 = load i64, ptr @rb_id_source_for, align 8, !tbaa !7
  %17 = getelementptr inbounds nuw i8, ptr %4, i64 664
  %18 = load i32, ptr %17, align 8, !tbaa !54
  %19 = sext i32 %18 to i64
  %20 = shl nsw i64 %19, 1
  %21 = or disjoint i64 %20, 1
  %22 = call i64 (i64, i64, i32, ...) @rb_funcall(i64 noundef %15, i64 noundef %16, i32 noundef 3, i64 noundef %11, i64 noundef %21, i64 noundef %14) #9
  call void @llvm.lifetime.start.p0(i64 32, ptr nonnull %5) #9
  store i64 %22, ptr %5, align 8, !tbaa !55
  %23 = getelementptr inbounds nuw i8, ptr %5, i64 8
  %24 = call i64 @rb_ary_new() #9
  store i64 %24, ptr %23, align 8, !tbaa !58
  %25 = getelementptr inbounds nuw i8, ptr %5, i64 16
  %26 = call nonnull ptr @rb_utf8_encoding() #9
  store ptr %26, ptr %25, align 8, !tbaa !59
  %27 = getelementptr inbounds nuw i8, ptr %5, i64 24
  %28 = getelementptr inbounds nuw i8, ptr %1, i64 97
  %29 = load i8, ptr %28, align 1, !tbaa !43, !range !44, !noundef !45
  store i8 %29, ptr %27, align 8, !tbaa !60
  %30 = getelementptr inbounds nuw i8, ptr %5, i64 25
  call void @llvm.memset.p0.i64(ptr noundef nonnull align 1 dereferenceable(7) %30, i8 0, i64 7, i1 false)
  call void @llvm.lifetime.start.p0(i64 16, ptr nonnull %6) #9
  store ptr %5, ptr %6, align 8, !tbaa !61
  %31 = getelementptr inbounds nuw i8, ptr %6, i64 8
  store ptr @parse_lex_token, ptr %31, align 8, !tbaa !63
  %32 = getelementptr inbounds nuw i8, ptr %4, i64 544
  store ptr %6, ptr %32, align 8, !tbaa !64
  %33 = call ptr @pm_parse(ptr noundef nonnull %4) #9
  %34 = getelementptr inbounds nuw i8, ptr %4, i64 520
  %35 = load ptr, ptr %34, align 8, !tbaa !26
  %36 = getelementptr inbounds nuw i8, ptr %35, i64 32
  %37 = load ptr, ptr %36, align 8, !tbaa !41
  %38 = call ptr @rb_enc_find(ptr noundef %37) #9
  %39 = call i64 @rb_enc_associate(i64 noundef %11, ptr noundef %38) #9
  %40 = load i64, ptr %12, align 8, !tbaa !53
  %.not = icmp eq i64 %40, 0
  br i1 %.not, label %._crit_edge, label %.lr.ph

.lr.ph:                                           ; preds = %3
  %41 = getelementptr inbounds nuw i8, ptr %4, i64 624
  br label %44

._crit_edge:                                      ; preds = %rb_ulong2num_inline.exit, %3
  %42 = load i8, ptr %28, align 1, !tbaa !43, !range !44, !noundef !45
  %43 = trunc nuw i8 %42 to i1
  br i1 %43, label %58, label %64

44:                                               ; preds = %.lr.ph, %rb_ulong2num_inline.exit
  %.035 = phi i64 [ 0, %.lr.ph ], [ %55, %rb_ulong2num_inline.exit ]
  %45 = load ptr, ptr %41, align 8, !tbaa !65
  %46 = getelementptr i64, ptr %45, i64 %.035
  %47 = load i64, ptr %46, align 8, !tbaa !7
  %48 = icmp ult i64 %47, 4611686018427387904
  br i1 %48, label %49, label %52

49:                                               ; preds = %44
  %50 = shl nuw nsw i64 %47, 1
  %51 = or disjoint i64 %50, 1
  br label %rb_ulong2num_inline.exit

52:                                               ; preds = %44
  %53 = call i64 @rb_uint2big(i64 noundef %47) #9
  br label %rb_ulong2num_inline.exit

rb_ulong2num_inline.exit:                         ; preds = %49, %52
  %.0.i = phi i64 [ %51, %49 ], [ %53, %52 ]
  %54 = call i64 @rb_ary_push(i64 noundef %14, i64 noundef %.0.i) #9
  %55 = add nuw i64 %.035, 1
  %56 = load i64, ptr %12, align 8, !tbaa !53
  %57 = icmp ult i64 %55, %56
  br i1 %57, label %44, label %._crit_edge, !llvm.loop !66

58:                                               ; preds = %._crit_edge
  %59 = call i64 @rb_obj_freeze(i64 noundef %11) #9
  %60 = call i64 @rb_obj_freeze(i64 noundef %14) #9
  %61 = call i64 @rb_obj_freeze(i64 noundef %22) #9
  %62 = load i64, ptr %23, align 8, !tbaa !58
  %63 = call i64 @rb_obj_freeze(i64 noundef %62) #9
  br label %64

64:                                               ; preds = %58, %._crit_edge
  br i1 %2, label %65, label %82

65:                                               ; preds = %64
  %66 = call i64 @rb_ary_new_capa(i64 noundef 2) #9
  %67 = load ptr, ptr %25, align 8, !tbaa !59
  %68 = load i8, ptr %28, align 1, !tbaa !43, !range !44, !noundef !45
  %69 = trunc nuw i8 %68 to i1
  %70 = call i64 @pm_ast_new(ptr noundef nonnull %4, ptr noundef %33, ptr noundef %67, i64 noundef %22, i1 noundef zeroext %69) #9
  %71 = call i64 @rb_ary_push(i64 noundef %66, i64 noundef %70) #9
  %72 = load i64, ptr %23, align 8, !tbaa !58
  %73 = call i64 @rb_ary_push(i64 noundef %66, i64 noundef %72) #9
  %74 = load i8, ptr %28, align 1, !tbaa !43, !range !44, !noundef !45
  %75 = trunc nuw i8 %74 to i1
  br i1 %75, label %76, label %78

76:                                               ; preds = %65
  %77 = call i64 @rb_obj_freeze(i64 noundef %66) #9
  %.pre = load i8, ptr %28, align 1, !tbaa !43, !range !44
  %.pre36 = trunc nuw i8 %.pre to i1
  br label %78

78:                                               ; preds = %76, %65
  %.pre-phi = phi i1 [ %.pre36, %76 ], [ false, %65 ]
  %79 = load i64, ptr @rb_cPrismParseLexResult, align 8, !tbaa !7
  %80 = load ptr, ptr %25, align 8, !tbaa !59
  %81 = call fastcc i64 @parse_result_create(i64 noundef %79, ptr noundef %4, i64 noundef %66, ptr noundef %80, i64 noundef %22, i1 noundef zeroext %.pre-phi)
  br label %89

82:                                               ; preds = %64
  %83 = load i64, ptr @rb_cPrismLexResult, align 8, !tbaa !7
  %84 = load i64, ptr %23, align 8, !tbaa !58
  %85 = load ptr, ptr %25, align 8, !tbaa !59
  %86 = load i8, ptr %28, align 1, !tbaa !43, !range !44, !noundef !45
  %87 = trunc nuw i8 %86 to i1
  %88 = call fastcc i64 @parse_result_create(i64 noundef %83, ptr noundef %4, i64 noundef %84, ptr noundef %85, i64 noundef %22, i1 noundef zeroext %87)
  br label %89

89:                                               ; preds = %82, %78
  %.034 = phi i64 [ %81, %78 ], [ %88, %82 ]
  call void @pm_node_destroy(ptr noundef nonnull %4, ptr noundef %33) #9
  call void @pm_parser_free(ptr noundef nonnull %4) #9
  call void @llvm.lifetime.end.p0(i64 16, ptr nonnull %6) #9
  call void @llvm.lifetime.end.p0(i64 32, ptr nonnull %5) #9
  call void @llvm.lifetime.end.p0(i64 712, ptr nonnull %4) #9
  ret i64 %.034
}